target datalayout = "e-m:e-p270:32:32-p271:32:32-p272:64:64-i64:64-i128:128-f80:128-n8:16:32:64-S128"
target triple = "x86_64-pc-linux-gnu"

%"struct.duckdb_zstd::XXH64_state_s" = type { i64, i64, i64, i64, i64, [4 x i64], i32, [2 x i32] }

; Function Attrs: mustprogress nounwind uwtable
define noundef i32 @_ZN11duckdb_zstd11XXH64_resetEPNS_13XXH64_state_sEy(ptr noundef %0, i64 noundef %1) #0 {
  %3 = alloca ptr, align 8
  %4 = alloca i64, align 8
  %5 = alloca %"struct.duckdb_zstd::XXH64_state_s", align 8
  store ptr %0, ptr %3, align 8, !tbaa !8
  store i64 %1, ptr %4, align 8, !tbaa !26
  call void @llvm.lifetime.start.p0(i64 88, ptr %5) #8
  call void @llvm.memset.p0.i64(ptr align 8 %5, i8 0, i64 80, i1 false)
  %6 = load i64, ptr %4, align 8, !tbaa !26
  %7 = add i64 %6, -7046029288634856825
  %8 = add i64 %7, -4417276706812531889
  %9 = getelementptr inbounds nuw %"struct.duckdb_zstd::XXH64_state_s", ptr %5, i32 0, i32 1
  store i64 %8, ptr %9, align 8, !tbaa !36
  %10 = load i64, ptr %4, align 8, !tbaa !26
  %11 = add i64 %10, -4417276706812531889
  %12 = getelementptr inbounds nuw %"struct.duckdb_zstd::XXH64_state_s", ptr %5, i32 0, i32 2
  store i64 %11, ptr %12, align 8, !tbaa !38
  %13 = load i64, ptr %4, align 8, !tbaa !26
  %14 = add i64 %13, 0
  %15 = getelementptr inbounds nuw %"struct.duckdb_zstd::XXH64_state_s", ptr %5, i32 0, i32 3
  store i64 %14, ptr %15, align 8, !tbaa !39
  %16 = load i64, ptr %4, align 8, !tbaa !26
  %17 = sub i64 %16, -7046029288634856825
  %18 = getelementptr inbounds nuw %"struct.duckdb_zstd::XXH64_state_s", ptr %5, i32 0, i32 4
  store i64 %17, ptr %18, align 8, !tbaa !40
  %19 = load ptr, ptr %3, align 8, !tbaa !8
  call void @llvm.memcpy.p0.p0.i64(ptr align 8 %19, ptr align 8 %5, i64 88, i1 false)
  call void @llvm.lifetime.end.p0(i64 88, ptr %5) #8
  ret i32 0
}