; Function Attrs: mustprogress nofree norecurse nosync nounwind willreturn memory(argmem: write) uwtable
define noundef i32 @_ZN11duckdb_zstd11XXH64_resetEPNS_13XXH64_state_sEy(ptr noundef writeonly captures(none) initializes((0, 80)) %0, i64 noundef %1) local_unnamed_addr #6 {
  %3 = add i64 %1, 6983438078262162902
  %4 = add i64 %1, -4417276706812531889
  %5 = add i64 %1, 7046029288634856825
  store i64 0, ptr %0, align 8
  %.sroa.4.0..sroa_idx = getelementptr inbounds nuw i8, ptr %0, i64 8
  store i64 %3, ptr %.sroa.4.0..sroa_idx, align 8
  %.sroa.5.0..sroa_idx = getelementptr inbounds nuw i8, ptr %0, i64 16
  store i64 %4, ptr %.sroa.5.0..sroa_idx, align 8
  %.sroa.6.0..sroa_idx = getelementptr inbounds nuw i8, ptr %0, i64 24
  store i64 %1, ptr %.sroa.6.0..sroa_idx, align 8
  %.sroa.7.0..sroa_idx = getelementptr inbounds nuw i8, ptr %0, i64 32
  store i64 %5, ptr %.sroa.7.0..sroa_idx, align 8
  %.sroa.8.0..sroa_idx = getelementptr inbounds nuw i8, ptr %0, i64 40
  tail call void @llvm.memset.p0.i64(ptr noundef nonnull align 8 dereferenceable(40) %.sroa.8.0..sroa_idx, i8 0, i64 40, i1 false)
  ret i32 0
}